target datalayout = "e-m:e-p270:32:32-p271:32:32-p272:64:64-i64:64-i128:128-f80:128-n8:16:32:64-S128"
target triple = "x86_64-pc-linux-gnu"

%struct.slurmctld_lock_t = type { i32, i32, i32, i32, i32 }
%struct.slurm_conf_t = type { i64, ptr, i16, ptr, ptr, ptr, ptr, ptr, i16, ptr, ptr, ptr, ptr, ptr, ptr, ptr, i16, ptr, ptr, ptr, ptr, i16, ptr, ptr, ptr, i64, ptr, ptr, ptr, ptr, i16, ptr, ptr, i16, i32, ptr, i32, ptr, i32, i32, ptr, ptr, i64, i64, ptr, i16, i16, ptr, i32, i32, ptr, i32, ptr, i32, i16, i16, i16, ptr, i16, i16, ptr, ptr, i32, i16, i16, ptr, i32, i16, ptr, ptr, ptr, ptr, i16, ptr, ptr, ptr, ptr, i32, ptr, ptr, ptr, ptr, i16, i16, ptr, i32, i32, i32, i16, i16, ptr, ptr, i16, ptr, ptr, i32, i32, i32, i32, i32, i64, i32, i32, i16, ptr, ptr, i32, ptr, ptr, ptr, i16, i32, ptr, ptr, i16, ptr, ptr, i32, i16, ptr, ptr, ptr, ptr, i32, i32, i16, i16, i32, ptr, i16, ptr, i32, i32, i32, i32, i32, i32, ptr, i16, ptr, ptr, i32, i16, ptr, i32, i16, i16, ptr, ptr, ptr, i16, ptr, ptr, ptr, ptr, i16, i16, ptr, i16, ptr, i16, ptr, i16, ptr, i16, ptr, ptr, ptr, ptr, i16, ptr, ptr, ptr, i32, ptr, i32, ptr, ptr, i16, ptr, ptr, i32, i16, ptr, ptr, i16, i16, ptr, i16, ptr, ptr, ptr, i32, ptr, i16, i16, ptr, ptr, ptr, ptr, ptr, ptr, ptr, ptr, i16, i32, i16, ptr, ptr, ptr, ptr, i32, ptr, ptr, ptr, i16, ptr, ptr, ptr, i16, ptr, i16, ptr, i16, i16, ptr }
%struct.node_record = type { ptr, ptr, i16, i64, i64, ptr, ptr, ptr, i16, ptr, i16, i16, i32, i32, i64, ptr, i16, i16, ptr, ptr, ptr, ptr, ptr, i64, i64, ptr, ptr, ptr, ptr, i32, ptr, ptr, i64, i64, i32, ptr, i64, ptr, i32, i16, ptr, ptr, i32, ptr, i32, i8, ptr, i32, i16, i16, ptr, i16, i64, i16, i64, ptr, i64, i32, i16, i64, i16, ptr, i16, i64, ptr, i64, i16, i32, i16, ptr, ptr, ptr, i16, i32, i16, i16, i32, ptr, i16, i32 }

@slurm_conf = external global %struct.slurm_conf_t, align 8
@acct_db_conn = external global ptr, align 8
@__const.send_nodes_to_accounting.node_read_lock = private unnamed_addr constant %struct.slurmctld_lock_t { i32 0, i32 0, i32 1, i32 0, i32 0 }, align 4
@.str.124 = private unnamed_addr constant [19 x i8] c"First Registration\00", align 1

; Function Attrs: nounwind uwtable
define dso_local i32 @send_nodes_to_accounting(i64 noundef %0) #0 {
  %2 = alloca i64, align 8
  %3 = alloca i32, align 4
  %4 = alloca i32, align 4
  %5 = alloca ptr, align 8
  %6 = alloca ptr, align 8
  %7 = alloca %struct.slurmctld_lock_t, align 8
  store i64 %0, ptr %2, align 8
  call void @llvm.lifetime.start.p0(i64 4, ptr %3) #10
  store i32 0, ptr %3, align 4
  call void @llvm.lifetime.start.p0(i64 4, ptr %4) #10
  store i32 0, ptr %4, align 4
  call void @llvm.lifetime.start.p0(i64 8, ptr %5) #10
  store ptr null, ptr %5, align 8
  call void @llvm.lifetime.start.p0(i64 8, ptr %6) #10
  store ptr null, ptr %6, align 8
  call void @llvm.lifetime.start.p0(i64 20, ptr %7) #10
  call void @llvm.memcpy.p0.p0.i64(ptr align 4 %7, ptr align 4 @__const.send_nodes_to_accounting.node_read_lock, i64 20, i1 false)
  call void @lock_slurmctld(ptr noundef byval(%struct.slurmctld_lock_t) align 8 %7)
  store i32 0, ptr %4, align 4
  br label %8

8:                                                ; preds = %79, %1
  %9 = call ptr @next_node(ptr noundef %4)
  store ptr %9, ptr %5, align 8
  %10 = icmp ne ptr %9, null
  br i1 %10, label %11, label %82

11:                                               ; preds = %8
  %12 = load ptr, ptr %5, align 8
  %13 = getelementptr inbounds nuw %struct.node_record, ptr %12, i32 0, i32 37
  %14 = load ptr, ptr %13, align 8
  %15 = icmp ne ptr %14, null
  br i1 %15, label %17, label %16

16:                                               ; preds = %11
  br label %79

17:                                               ; preds = %11
  %18 = load ptr, ptr %5, align 8
  %19 = getelementptr inbounds nuw %struct.node_record, ptr %18, i32 0, i32 55
  %20 = load ptr, ptr %19, align 8
  %21 = icmp ne ptr %20, null
  br i1 %21, label %22, label %26

22:                                               ; preds = %17
  %23 = load ptr, ptr %5, align 8
  %24 = getelementptr inbounds nuw %struct.node_record, ptr %23, i32 0, i32 55
  %25 = load ptr, ptr %24, align 8
  store ptr %25, ptr %6, align 8
  br label %27

26:                                               ; preds = %17
  store ptr @.str.124, ptr %6, align 8
  br label %27

27:                                               ; preds = %26, %22
  %28 = load ptr, ptr %5, align 8
  %29 = getelementptr inbounds nuw %struct.node_record, ptr %28, i32 0, i32 44
  %30 = load i32, ptr %29, align 8
  %31 = zext i32 %30 to i64
  %32 = and i64 %31, 512
  %33 = icmp ne i64 %32, 0
  br i1 %33, label %67, label %34

34:                                               ; preds = %27
  %35 = load ptr, ptr %5, align 8
  %36 = getelementptr inbounds nuw %struct.node_record, ptr %35, i32 0, i32 44
  %37 = load i32, ptr %36, align 8
  %38 = zext i32 %37 to i64
  %39 = and i64 %38, 8192
  %40 = icmp ne i64 %39, 0
  br i1 %40, label %67, label %41

41:                                               ; preds = %34
  %42 = load ptr, ptr %5, align 8
  %43 = getelementptr inbounds nuw %struct.node_record, ptr %42, i32 0, i32 44
  %44 = load i32, ptr %43, align 8
  %45 = and i32 %44, 15
  %46 = icmp eq i32 %45, 1
  br i1 %46, label %67, label %47

47:                                               ; preds = %41
  %48 = load ptr, ptr %5, align 8
  %49 = getelementptr inbounds nuw %struct.node_record, ptr %48, i32 0, i32 44
  %50 = load i32, ptr %49, align 8
  %51 = and i32 %50, 15
  %52 = icmp eq i32 %51, 6
  br i1 %52, label %67, label %53

53:                                               ; preds = %47
  %54 = load ptr, ptr %5, align 8
  %55 = getelementptr inbounds nuw %struct.node_record, ptr %54, i32 0, i32 44
  %56 = load i32, ptr %55, align 8
  %57 = zext i32 %56 to i64
  %58 = and i64 %57, 128
  %59 = icmp ne i64 %58, 0
  br i1 %59, label %60, label %74

60:                                               ; preds = %53
  %61 = load ptr, ptr %5, align 8
  %62 = getelementptr inbounds nuw %struct.node_record, ptr %61, i32 0, i32 44
  %63 = load i32, ptr %62, align 8
  %64 = zext i32 %63 to i64
  %65 = and i64 %64, 4096
  %66 = icmp ne i64 %65, 0
  br i1 %66, label %67, label %74

67:                                               ; preds = %60, %47, %41, %34, %27
  %68 = load ptr, ptr @acct_db_conn, align 8
  %69 = load ptr, ptr %5, align 8
  %70 = load i64, ptr %2, align 8
  %71 = load ptr, ptr %6, align 8
  %72 = load i32, ptr getelementptr inbounds nuw (%struct.slurm_conf_t, ptr @slurm_conf, i32 0, i32 173), align 8
  %73 = call i32 @clusteracct_storage_g_node_down(ptr noundef %68, ptr noundef %69, i64 noundef %70, ptr noundef %71, i32 noundef %72)
  store i32 %73, ptr %3, align 4
  br label %74

74:                                               ; preds = %67, %60, %53
  %75 = load i32, ptr %3, align 4
  %76 = icmp eq i32 %75, -1
  br i1 %76, label %77, label %78

77:                                               ; preds = %74
  br label %82

78:                                               ; preds = %74
  br label %79

79:                                               ; preds = %78, %16
  %80 = load i32, ptr %4, align 4
  %81 = add nsw i32 %80, 1
  store i32 %81, ptr %4, align 4
  br label %8, !llvm.loop !44

82:                                               ; preds = %77, %8
  call void @unlock_slurmctld(ptr noundef byval(%struct.slurmctld_lock_t) align 8 %7)
  %83 = load i32, ptr %3, align 4
  call void @llvm.lifetime.end.p0(i64 20, ptr %7) #10
  call void @llvm.lifetime.end.p0(i64 8, ptr %6) #10
  call void @llvm.lifetime.end.p0(i64 8, ptr %5) #10
  call void @llvm.lifetime.end.p0(i64 4, ptr %4) #10
  call void @llvm.lifetime.end.p0(i64 4, ptr %3) #10
  ret i32 %83
}