; Function Attrs: nounwind uwtable
define dso_local i32 @send_nodes_to_accounting(i64 noundef %0) local_unnamed_addr #0 {
  %2 = alloca i32, align 4
  call void @llvm.lifetime.start.p0(i64 4, ptr nonnull %2) #15
  tail call void @lock_slurmctld(ptr noundef nonnull byval(%struct.slurmctld_lock_t) align 8 @__const.send_nodes_to_accounting.node_read_lock) #15
  store i32 0, ptr %2, align 4
  %3 = call ptr @next_node(ptr noundef nonnull %2) #15
  %.not24 = icmp eq ptr %3, null
  br i1 %.not24, label %._crit_edge, label %.lr.ph

.lr.ph:                                           ; preds = %1, %24
  %4 = phi ptr [ %27, %24 ], [ %3, %1 ]
  %.01325 = phi i32 [ %.2, %24 ], [ 0, %1 ]
  %5 = getelementptr inbounds nuw i8, ptr %4, i64 272
  %6 = load ptr, ptr %5, align 8
  %.not17 = icmp eq ptr %6, null
  br i1 %.not17, label %24, label %7

7:                                                ; preds = %.lr.ph
  %8 = getelementptr inbounds nuw i8, ptr %4, i64 384
  %9 = load ptr, ptr %8, align 8
  %.not18 = icmp eq ptr %9, null
  %.str.124. = select i1 %.not18, ptr @.str.124, ptr %9
  %10 = getelementptr inbounds nuw i8, ptr %4, i64 320
  %11 = load i32, ptr %10, align 8
  %12 = zext i32 %11 to i64
  %13 = and i64 %12, 8704
  %or.cond = icmp eq i64 %13, 0
  br i1 %or.cond, label %14, label %18

14:                                               ; preds = %7
  %15 = and i32 %11, 15
  switch i32 %15, label %16 [
    i32 1, label %18
    i32 6, label %18
  ]

16:                                               ; preds = %14
  %17 = and i64 %12, 4224
  %or.cond23.not = icmp eq i64 %17, 4224
  br i1 %or.cond23.not, label %18, label %22

18:                                               ; preds = %16, %14, %14, %7
  %19 = load ptr, ptr @acct_db_conn, align 8
  %20 = load i32, ptr getelementptr inbounds nuw (i8, ptr @slurm_conf, i64 1152), align 8
  %21 = call i32 @clusteracct_storage_g_node_down(ptr noundef %19, ptr noundef nonnull %4, i64 noundef %0, ptr noundef nonnull %.str.124., i32 noundef %20) #15
  br label %22

22:                                               ; preds = %18, %16
  %.3 = phi i32 [ %21, %18 ], [ %.01325, %16 ]
  %23 = icmp eq i32 %.3, -1
  br i1 %23, label %._crit_edge, label %24

24:                                               ; preds = %22, %.lr.ph
  %.2 = phi i32 [ %.3, %22 ], [ %.01325, %.lr.ph ]
  %25 = load i32, ptr %2, align 4
  %26 = add nsw i32 %25, 1
  store i32 %26, ptr %2, align 4
  %27 = call ptr @next_node(ptr noundef nonnull %2) #15
  %.not = icmp eq ptr %27, null
  br i1 %.not, label %._crit_edge, label %.lr.ph, !llvm.loop !43

._crit_edge:                                      ; preds = %24, %22, %1
  %.1 = phi i32 [ 0, %1 ], [ -1, %22 ], [ %.2, %24 ]
  call void @unlock_slurmctld(ptr noundef nonnull byval(%struct.slurmctld_lock_t) align 8 @__const.send_nodes_to_accounting.node_read_lock) #15
  call void @llvm.lifetime.end.p0(i64 4, ptr nonnull %2) #15
  ret i32 %.1
}